target datalayout = "e-m:e-p270:32:32-p271:32:32-p272:64:64-i64:64-i128:128-f80:128-n8:16:32:64-S128"
target triple = "x86_64-unknown-linux-gnu"

%"class.std::__cxx11::basic_string" = type { %"struct.std::__cxx11::basic_string<char>::_Alloc_hider", i64, %union.anon.13 }
%"struct.std::__cxx11::basic_string<char>::_Alloc_hider" = type { ptr }
%union.anon.13 = type { i64, [8 x i8] }
%"struct.facebook::hermes::tracing::SynthTrace::MarkerRecord" = type { %"struct.facebook::hermes::tracing::SynthTrace::Record", %"class.std::__cxx11::basic_string" }
%"struct.facebook::hermes::tracing::SynthTrace::Record" = type { ptr, %"class.std::chrono::duration" }
%"class.std::chrono::duration" = type { i64 }

@_ZTIN8facebook6hermes7tracing10SynthTrace6RecordE = hidden constant { ptr, ptr } { ptr getelementptr inbounds (ptr, ptr @_ZTVN10__cxxabiv117__class_type_infoE, i64 2), ptr @_ZTSN8facebook6hermes7tracing10SynthTrace6RecordE }, align 8

; Function Attrs: noreturn nounwind uwtable
define linkonce_odr hidden void @__clang_call_terminate(ptr noundef %0) #7 comdat {
  %2 = call ptr @__cxa_begin_catch(ptr %0) #13
  call void @_ZSt9terminatev() #16
  unreachable
}

; Function Attrs: mustprogress nounwind uwtable
define linkonce_odr noundef i32 @_ZNSt11char_traitsIcE7compareEPKcS2_m(ptr noundef %__s1, ptr noundef %__s2, i64 noundef %__n) #0 comdat align 2 {
entry:
  %retval = alloca i32, align 4
  %__s1.addr = alloca ptr, align 8
  %__s2.addr = alloca ptr, align 8
  %__n.addr = alloca i64, align 8
  store ptr %__s1, ptr %__s1.addr, align 8
  store ptr %__s2, ptr %__s2.addr, align 8
  store i64 %__n, ptr %__n.addr, align 8
  %0 = load i64, ptr %__n.addr, align 8
  %cmp = icmp eq i64 %0, 0
  br i1 %cmp, label %if.then, label %if.end

if.then:                                          ; preds = %entry
  store i32 0, ptr %retval, align 4
  br label %return

if.end:                                           ; preds = %entry
  %1 = load ptr, ptr %__s1.addr, align 8
  %2 = load ptr, ptr %__s2.addr, align 8
  %3 = load i64, ptr %__n.addr, align 8
  %call = call i32 @memcmp(ptr noundef %1, ptr noundef %2, i64 noundef %3) #13
  store i32 %call, ptr %retval, align 4
  br label %return

return:                                           ; preds = %if.end, %if.then
  %4 = load i32, ptr %retval, align 4
  ret i32 %4
}

; Function Attrs: mustprogress nounwind uwtable
define linkonce_odr noundef zeroext i1 @_ZSteqIcEN9__gnu_cxx11__enable_ifIXsr9__is_charIT_EE7__valueEbE6__typeERKNSt7__cxx1112basic_stringIS2_St11char_traitsIS2_ESaIS2_EEESC_(ptr noundef nonnull align 8 dereferenceable(32) %__lhs, ptr noundef nonnull align 8 dereferenceable(32) %__rhs) #0 comdat personality ptr @__gxx_personality_v0 {
entry:
  %__lhs.addr = alloca ptr, align 8
  %__rhs.addr = alloca ptr, align 8
  store ptr %__lhs, ptr %__lhs.addr, align 8
  store ptr %__rhs, ptr %__rhs.addr, align 8
  %0 = load ptr, ptr %__lhs.addr, align 8
  %call = call noundef i64 @_ZNKSt7__cxx1112basic_stringIcSt11char_traitsIcESaIcEE4sizeEv(ptr noundef nonnull align 8 dereferenceable(32) %0) #13
  %1 = load ptr, ptr %__rhs.addr, align 8
  %call1 = call noundef i64 @_ZNKSt7__cxx1112basic_stringIcSt11char_traitsIcESaIcEE4sizeEv(ptr noundef nonnull align 8 dereferenceable(32) %1) #13
  %cmp = icmp eq i64 %call, %call1
  br i1 %cmp, label %land.rhs, label %land.end

land.rhs:                                         ; preds = %entry
  %2 = load ptr, ptr %__lhs.addr, align 8
  %call2 = call noundef ptr @_ZNKSt7__cxx1112basic_stringIcSt11char_traitsIcESaIcEE4dataEv(ptr noundef nonnull align 8 dereferenceable(32) %2) #13
  %3 = load ptr, ptr %__rhs.addr, align 8
  %call3 = call noundef ptr @_ZNKSt7__cxx1112basic_stringIcSt11char_traitsIcESaIcEE4dataEv(ptr noundef nonnull align 8 dereferenceable(32) %3) #13
  %4 = load ptr, ptr %__lhs.addr, align 8
  %call4 = call noundef i64 @_ZNKSt7__cxx1112basic_stringIcSt11char_traitsIcESaIcEE4sizeEv(ptr noundef nonnull align 8 dereferenceable(32) %4) #13
  %call5 = invoke noundef i32 @_ZNSt11char_traitsIcE7compareEPKcS2_m(ptr noundef %call2, ptr noundef %call3, i64 noundef %call4)
          to label %invoke.cont unwind label %terminate.lpad

invoke.cont:                                      ; preds = %land.rhs
  %tobool = icmp ne i32 %call5, 0
  %lnot = xor i1 %tobool, true
  br label %land.end

land.end:                                         ; preds = %invoke.cont, %entry
  %5 = phi i1 [ false, %entry ], [ %lnot, %invoke.cont ]
  ret i1 %5

terminate.lpad:                                   ; preds = %land.rhs
  %6 = landingpad { ptr, i32 }
          catch ptr null
  %7 = extractvalue { ptr, i32 } %6, 0
  call void @__clang_call_terminate(ptr %7) #16
  unreachable
}

; Function Attrs: mustprogress uwtable
define linkonce_odr hidden noundef zeroext i1 @_ZNK8facebook6hermes7tracing10SynthTrace6RecordeqERKS3_(ptr noundef nonnull align 8 dereferenceable(16) %this, ptr noundef nonnull align 8 dereferenceable(16) %that) unnamed_addr #1 comdat align 2 {
entry:
  %this.addr = alloca ptr, align 8
  %that.addr = alloca ptr, align 8
  store ptr %this, ptr %this.addr, align 8
  store ptr %that, ptr %that.addr, align 8
  %this1 = load ptr, ptr %this.addr, align 8
  %vtable = load ptr, ptr %this1, align 8
  %vfn = getelementptr inbounds ptr, ptr %vtable, i64 2
  %0 = load ptr, ptr %vfn, align 8
  %call = call noundef i32 %0(ptr noundef nonnull align 8 dereferenceable(16) %this1)
  %1 = load ptr, ptr %that.addr, align 8
  %vtable2 = load ptr, ptr %1, align 8
  %vfn3 = getelementptr inbounds ptr, ptr %vtable2, i64 2
  %2 = load ptr, ptr %vfn3, align 8
  %call4 = call noundef i32 %2(ptr noundef nonnull align 8 dereferenceable(16) %1)
  %cmp = icmp eq i32 %call, %call4
  ret i1 %cmp
}

; Function Attrs: mustprogress uwtable
define hidden noundef zeroext i1 @_ZNK8facebook6hermes7tracing10SynthTrace12MarkerRecordeqERKNS2_6RecordE(ptr noundef nonnull align 8 dereferenceable(48) %this, ptr noundef nonnull align 8 dereferenceable(16) %that) unnamed_addr #1 align 2 {
entry:
  %this.addr = alloca ptr, align 8
  %that.addr = alloca ptr, align 8
  store ptr %this, ptr %this.addr, align 8
  store ptr %that, ptr %that.addr, align 8
  %this1 = load ptr, ptr %this.addr, align 8
  %0 = load ptr, ptr %that.addr, align 8
  %call = call noundef zeroext i1 @_ZNK8facebook6hermes7tracing10SynthTrace6RecordeqERKS3_(ptr noundef nonnull align 8 dereferenceable(16) %this1, ptr noundef nonnull align 8 dereferenceable(16) %0)
  br i1 %call, label %land.rhs, label %land.end

land.rhs:                                         ; preds = %entry
  %tag_ = getelementptr inbounds %"struct.facebook::hermes::tracing::SynthTrace::MarkerRecord", ptr %this1, i32 0, i32 1
  %1 = load ptr, ptr %that.addr, align 8
  %2 = call ptr @__dynamic_cast(ptr %1, ptr @_ZTIN8facebook6hermes7tracing10SynthTrace6RecordE, ptr @_ZTIN8facebook6hermes7tracing10SynthTrace12MarkerRecordE, i64 0) #13
  %3 = icmp eq ptr %2, null
  br i1 %3, label %dynamic_cast.bad_cast, label %dynamic_cast.end

dynamic_cast.bad_cast:                            ; preds = %land.rhs
  call void @__cxa_bad_cast() #17
  unreachable

dynamic_cast.end:                                 ; preds = %land.rhs
  %tag_2 = getelementptr inbounds %"struct.facebook::hermes::tracing::SynthTrace::MarkerRecord", ptr %2, i32 0, i32 1
  %call3 = call noundef zeroext i1 @_ZSteqIcEN9__gnu_cxx11__enable_ifIXsr9__is_charIT_EE7__valueEbE6__typeERKNSt7__cxx1112basic_stringIS2_St11char_traitsIS2_ESaIS2_EEESC_(ptr noundef nonnull align 8 dereferenceable(32) %tag_, ptr noundef nonnull align 8 dereferenceable(32) %tag_2) #13
  br label %land.end

land.end:                                         ; preds = %dynamic_cast.end, %entry
  %4 = phi i1 [ false, %entry ], [ %call3, %dynamic_cast.end ]
  ret i1 %4
}