; Function Attrs: mustprogress uwtable
define hidden noundef zeroext i1 @_ZNK8facebook6hermes7tracing10SynthTrace12MarkerRecordeqERKNS2_6RecordE(ptr noundef nonnull align 8 dereferenceable(48) %this, ptr noundef nonnull align 8 dereferenceable(16) %that) unnamed_addr #1 align 2 personality ptr @__gxx_personality_v0 {
entry:
  %vtable.i = load ptr, ptr %this, align 8
  %vfn.i = getelementptr inbounds i8, ptr %vtable.i, i64 16
  %0 = load ptr, ptr %vfn.i, align 8
  %call.i = tail call noundef i32 %0(ptr noundef nonnull align 8 dereferenceable(16) %this)
  %vtable2.i = load ptr, ptr %that, align 8
  %vfn3.i = getelementptr inbounds i8, ptr %vtable2.i, i64 16
  %1 = load ptr, ptr %vfn3.i, align 8
  %call4.i = tail call noundef i32 %1(ptr noundef nonnull align 8 dereferenceable(16) %that)
  %cmp.i = icmp eq i32 %call.i, %call4.i
  br i1 %cmp.i, label %land.rhs, label %land.end

land.rhs:                                         ; preds = %entry
  %2 = tail call ptr @__dynamic_cast(ptr nonnull %that, ptr nonnull @_ZTIN8facebook6hermes7tracing10SynthTrace6RecordE, ptr nonnull @_ZTIN8facebook6hermes7tracing10SynthTrace12MarkerRecordE, i64 0) #23
  %3 = icmp eq ptr %2, null
  br i1 %3, label %dynamic_cast.bad_cast, label %dynamic_cast.end

dynamic_cast.bad_cast:                            ; preds = %land.rhs
  tail call void @__cxa_bad_cast() #26
  unreachable

dynamic_cast.end:                                 ; preds = %land.rhs
  %tag_ = getelementptr inbounds i8, ptr %this, i64 16
  %tag_2 = getelementptr inbounds i8, ptr %2, i64 16
  %call.i2 = tail call noundef i64 @_ZNKSt7__cxx1112basic_stringIcSt11char_traitsIcESaIcEE4sizeEv(ptr noundef nonnull align 8 dereferenceable(32) %tag_) #23
  %call1.i = tail call noundef i64 @_ZNKSt7__cxx1112basic_stringIcSt11char_traitsIcESaIcEE4sizeEv(ptr noundef nonnull align 8 dereferenceable(32) %tag_2) #23
  %cmp.i3 = icmp eq i64 %call.i2, %call1.i
  br i1 %cmp.i3, label %land.rhs.i, label %land.end

land.rhs.i:                                       ; preds = %dynamic_cast.end
  %call2.i = tail call noundef ptr @_ZNKSt7__cxx1112basic_stringIcSt11char_traitsIcESaIcEE4dataEv(ptr noundef nonnull align 8 dereferenceable(32) %tag_) #23
  %call3.i = tail call noundef ptr @_ZNKSt7__cxx1112basic_stringIcSt11char_traitsIcESaIcEE4dataEv(ptr noundef nonnull align 8 dereferenceable(32) %tag_2) #23
  %call4.i4 = tail call noundef i64 @_ZNKSt7__cxx1112basic_stringIcSt11char_traitsIcESaIcEE4sizeEv(ptr noundef nonnull align 8 dereferenceable(32) %tag_) #23
  %cmp.i.i = icmp eq i64 %call4.i4, 0
  br i1 %cmp.i.i, label %land.end, label %if.end.i.i

if.end.i.i:                                       ; preds = %land.rhs.i
  %bcmp.i = tail call i32 @bcmp(ptr %call2.i, ptr %call3.i, i64 %call4.i4)
  %4 = icmp eq i32 %bcmp.i, 0
  br label %land.end

land.end:                                         ; preds = %if.end.i.i, %land.rhs.i, %dynamic_cast.end, %entry
  %5 = phi i1 [ false, %entry ], [ false, %dynamic_cast.end ], [ %4, %if.end.i.i ], [ true, %land.rhs.i ]
  ret i1 %5
}